target datalayout = "e-m:e-p270:32:32-p271:32:32-p272:64:64-i64:64-i128:128-f80:128-n8:16:32:64-S128"
target triple = "x86_64-pc-linux-gnu"

%struct.ggml_tensor = type { i32, ptr, [4 x i64], [4 x i64], i32, [16 x i32], i32, [10 x ptr], ptr, i64, ptr, [64 x i8], ptr, [8 x i8] }

@.str.12 = private unnamed_addr constant [113 x i8] c"generated/home/dtcxzyw/WorkSpace/Projects/compilers/llvm-opt-benchmark/bench/llama.cpp/llama.cpp/ggml/src/ggml.c\00", align 1
@.str.13 = private unnamed_addr constant [23 x i8] c"GGML_ASSERT(%s) failed\00", align 1
@.str.69 = private unnamed_addr constant [14 x i8] c"a->ne[1] == 1\00", align 1

; Function Attrs: nounwind uwtable
define ptr @ggml_new_tensor(ptr noundef %0, i32 noundef %1, i32 noundef %2, ptr noundef %3) #5 {
  %5 = alloca ptr, align 8
  %6 = alloca i32, align 4
  %7 = alloca i32, align 4
  %8 = alloca ptr, align 8
  store ptr %0, ptr %5, align 8, !tbaa !48
  store i32 %1, ptr %6, align 4, !tbaa !8
  store i32 %2, ptr %7, align 4, !tbaa !8
  store ptr %3, ptr %8, align 8, !tbaa !88
  %9 = load ptr, ptr %5, align 8, !tbaa !48
  %10 = load i32, ptr %6, align 4, !tbaa !8
  %11 = load i32, ptr %7, align 4, !tbaa !8
  %12 = load ptr, ptr %8, align 8, !tbaa !88
  %13 = call ptr @ggml_new_tensor_impl(ptr noundef %9, i32 noundef %10, i32 noundef %11, ptr noundef %12, ptr noundef null, i64 noundef 0)
  ret ptr %13
}

; Function Attrs: nounwind uwtable
define ptr @ggml_diag(ptr noundef %0, ptr noundef %1) #5 {
  %3 = alloca ptr, align 8
  %4 = alloca ptr, align 8
  %5 = alloca [4 x i64], align 16
  %6 = alloca ptr, align 8
  store ptr %0, ptr %3, align 8, !tbaa !48
  store ptr %1, ptr %4, align 8, !tbaa !54
  %7 = load ptr, ptr %4, align 8, !tbaa !54
  %8 = getelementptr inbounds nuw %struct.ggml_tensor, ptr %7, i32 0, i32 2
  %9 = getelementptr inbounds [4 x i64], ptr %8, i64 0, i64 1
  %10 = load i64, ptr %9, align 8, !tbaa !19
  %11 = icmp eq i64 %10, 1
  br i1 %11, label %13, label %12

12:                                               ; preds = %2
  call void (ptr, i32, ptr, ...) @ggml_abort(ptr noundef @.str.12, i32 noundef 3330, ptr noundef @.str.13, ptr noundef @.str.69) #18
  unreachable

13:                                               ; preds = %2
  call void @llvm.lifetime.start.p0(i64 32, ptr %5) #14
  %14 = load ptr, ptr %4, align 8, !tbaa !54
  %15 = getelementptr inbounds nuw %struct.ggml_tensor, ptr %14, i32 0, i32 2
  %16 = getelementptr inbounds [4 x i64], ptr %15, i64 0, i64 0
  %17 = load i64, ptr %16, align 8, !tbaa !19
  store i64 %17, ptr %5, align 8, !tbaa !19
  %18 = getelementptr inbounds i64, ptr %5, i64 1
  %19 = load ptr, ptr %4, align 8, !tbaa !54
  %20 = getelementptr inbounds nuw %struct.ggml_tensor, ptr %19, i32 0, i32 2
  %21 = getelementptr inbounds [4 x i64], ptr %20, i64 0, i64 0
  %22 = load i64, ptr %21, align 8, !tbaa !19
  store i64 %22, ptr %18, align 8, !tbaa !19
  %23 = getelementptr inbounds i64, ptr %5, i64 2
  %24 = load ptr, ptr %4, align 8, !tbaa !54
  %25 = getelementptr inbounds nuw %struct.ggml_tensor, ptr %24, i32 0, i32 2
  %26 = getelementptr inbounds [4 x i64], ptr %25, i64 0, i64 2
  %27 = load i64, ptr %26, align 8, !tbaa !19
  store i64 %27, ptr %23, align 8, !tbaa !19
  %28 = getelementptr inbounds i64, ptr %5, i64 3
  %29 = load ptr, ptr %4, align 8, !tbaa !54
  %30 = getelementptr inbounds nuw %struct.ggml_tensor, ptr %29, i32 0, i32 2
  %31 = getelementptr inbounds [4 x i64], ptr %30, i64 0, i64 3
  %32 = load i64, ptr %31, align 8, !tbaa !19
  store i64 %32, ptr %28, align 8, !tbaa !19
  call void @llvm.lifetime.start.p0(i64 8, ptr %6) #14
  %33 = load ptr, ptr %3, align 8, !tbaa !48
  %34 = load ptr, ptr %4, align 8, !tbaa !54
  %35 = getelementptr inbounds nuw %struct.ggml_tensor, ptr %34, i32 0, i32 0
  %36 = load i32, ptr %35, align 8, !tbaa !56
  %37 = getelementptr inbounds [4 x i64], ptr %5, i64 0, i64 0
  %38 = call ptr @ggml_new_tensor(ptr noundef %33, i32 noundef %36, i32 noundef 4, ptr noundef %37)
  store ptr %38, ptr %6, align 8, !tbaa !54
  %39 = load ptr, ptr %6, align 8, !tbaa !54
  %40 = getelementptr inbounds nuw %struct.ggml_tensor, ptr %39, i32 0, i32 4
  store i32 39, ptr %40, align 8, !tbaa !68
  %41 = load ptr, ptr %4, align 8, !tbaa !54
  %42 = load ptr, ptr %6, align 8, !tbaa !54
  %43 = getelementptr inbounds nuw %struct.ggml_tensor, ptr %42, i32 0, i32 7
  %44 = getelementptr inbounds [10 x ptr], ptr %43, i64 0, i64 0
  store ptr %41, ptr %44, align 8, !tbaa !54
  %45 = load ptr, ptr %6, align 8, !tbaa !54
  call void @llvm.lifetime.end.p0(i64 8, ptr %6) #14
  call void @llvm.lifetime.end.p0(i64 32, ptr %5) #14
  ret ptr %45
}