; Function Attrs: nounwind uwtable
define noundef ptr @ggml_diag(ptr noundef captures(none) %0, ptr noundef %1) local_unnamed_addr #4 {
  %3 = alloca [4 x i64], align 16
  %4 = getelementptr inbounds nuw i8, ptr %1, i64 24
  %5 = load i64, ptr %4, align 8, !tbaa !39
  %6 = icmp eq i64 %5, 1
  br i1 %6, label %8, label %7

7:                                                ; preds = %2
  tail call void (ptr, i32, ptr, ...) @ggml_abort(ptr noundef nonnull @.str.12, i32 noundef 3330, ptr noundef nonnull @.str.13, ptr noundef nonnull @.str.69) #47
  unreachable

8:                                                ; preds = %2
  %9 = getelementptr inbounds nuw i8, ptr %1, i64 16
  call void @llvm.lifetime.start.p0(i64 32, ptr nonnull %3) #42
  %10 = load i64, ptr %9, align 8, !tbaa !39
  store i64 %10, ptr %3, align 16, !tbaa !39
  %11 = getelementptr inbounds nuw i8, ptr %3, i64 8
  store i64 %10, ptr %11, align 8, !tbaa !39
  %12 = getelementptr inbounds nuw i8, ptr %3, i64 16
  %13 = getelementptr inbounds nuw i8, ptr %1, i64 32
  %14 = load i64, ptr %13, align 8, !tbaa !39
  store i64 %14, ptr %12, align 16, !tbaa !39
  %15 = getelementptr inbounds nuw i8, ptr %3, i64 24
  %16 = getelementptr inbounds nuw i8, ptr %1, i64 40
  %17 = load i64, ptr %16, align 8, !tbaa !39
  store i64 %17, ptr %15, align 8, !tbaa !39
  %18 = load i32, ptr %1, align 8, !tbaa !40
  %19 = call fastcc noundef ptr @ggml_new_tensor_impl(ptr noundef %0, i32 noundef %18, i32 noundef 4, ptr noundef nonnull readonly %3, ptr noundef null, i64 noundef 0)
  %20 = getelementptr inbounds nuw i8, ptr %19, i64 80
  store i32 39, ptr %20, align 8, !tbaa !55
  %21 = getelementptr inbounds nuw i8, ptr %19, i64 152
  store ptr %1, ptr %21, align 8, !tbaa !81
  call void @llvm.lifetime.end.p0(i64 32, ptr nonnull %3) #42
  ret ptr %19
}